; ModuleID = '27/1295.c'
source_filename = "27/1295.c"
target datalayout = "e-m:e-p270:32:32-p271:32:32-p272:64:64-i64:64-f80:128-n8:16:32:64-S128"
target triple = "x86_64-pc-linux-gnu"

@.str = private unnamed_addr constant [3 x i8] c"%d\00", align 1
@.str.1 = private unnamed_addr constant [7 x i8] c"%f%f%f\00", align 1
@.str.2 = private unnamed_addr constant [12 x i8] c"x1=x2=%.5f\0A\00", align 1
@.str.3 = private unnamed_addr constant [17 x i8] c"x1=%.5f;x2=%.5f\0A\00", align 1
@.str.4 = private unnamed_addr constant [15 x i8] c"x1=%.5f+%.5fi;\00", align 1
@.str.5 = private unnamed_addr constant [15 x i8] c"x2=%.5f-%.5fi\0A\00", align 1

; Function Attrs: noinline nounwind uwtable
define dso_local i32 @main() #0 {
  %1 = alloca i32, align 4
  %2 = alloca i32, align 4
  %3 = alloca i32, align 4
  %4 = alloca float, align 4
  %5 = alloca float, align 4
  %6 = alloca float, align 4
  %7 = alloca float, align 4
  %8 = alloca double, align 8
  %9 = alloca double, align 8
  %10 = alloca double, align 8
  %11 = alloca double, align 8
  %12 = alloca double, align 8
  store i32 0, i32* %1, align 4
  store i32 0, i32* %3, align 4
  %13 = call i32 (i8*, ...) @__isoc99_scanf(i8* getelementptr inbounds ([3 x i8], [3 x i8]* @.str, i64 0, i64 0), i32* %2)
  store i32 0, i32* %3, align 4
  br label %14

14:                                               ; preds = %89, %0
  %15 = load i32, i32* %3, align 4
  %16 = load i32, i32* %2, align 4
  %17 = icmp slt i32 %15, %16
  br i1 %17, label %18, label %92

18:                                               ; preds = %14
  %19 = call i32 (i8*, ...) @__isoc99_scanf(i8* getelementptr inbounds ([7 x i8], [7 x i8]* @.str.1, i64 0, i64 0), float* %4, float* %5, float* %6)
  %20 = load float, float* %5, align 4
  %21 = load float, float* %5, align 4
  %22 = fmul float %20, %21
  %23 = load float, float* %4, align 4
  %24 = fmul float 4.000000e+00, %23
  %25 = load float, float* %6, align 4
  %26 = fmul float %24, %25
  %27 = fsub float %22, %26
  %28 = fpext float %27 to double
  store double %28, double* %8, align 8
  %29 = load double, double* %8, align 8
  %30 = call double @llvm.fabs.f64(double %29)
  %31 = fcmp oeq double %30, 0.000000e+00
  br i1 %31, label %32, label %40

32:                                               ; preds = %18
  %33 = load float, float* %5, align 4
  %34 = fneg float %33
  %35 = load float, float* %4, align 4
  %36 = fmul float 2.000000e+00, %35
  %37 = fdiv float %34, %36
  %38 = fpext float %37 to double
  %39 = call i32 (i8*, ...) @printf(i8* getelementptr inbounds ([12 x i8], [12 x i8]* @.str.2, i64 0, i64 0), double %38)
  br label %88

40:                                               ; preds = %18
  %41 = load double, double* %8, align 8
  %42 = fcmp ogt double %41, 0.000000e+00
  br i1 %42, label %43, label %67

43:                                               ; preds = %40
  %44 = load float, float* %5, align 4
  %45 = fneg float %44
  %46 = fpext float %45 to double
  %47 = load double, double* %8, align 8
  %48 = call double @sqrt(double %47) #4
  %49 = fadd double %46, %48
  %50 = load float, float* %4, align 4
  %51 = fmul float 2.000000e+00, %50
  %52 = fpext float %51 to double
  %53 = fdiv double %49, %52
  store double %53, double* %9, align 8
  %54 = load float, float* %5, align 4
  %55 = fneg float %54
  %56 = fpext float %55 to double
  %57 = load double, double* %8, align 8
  %58 = call double @sqrt(double %57) #4
  %59 = fsub double %56, %58
  %60 = load float, float* %4, align 4
  %61 = fmul float 2.000000e+00, %60
  %62 = fpext float %61 to double
  %63 = fdiv double %59, %62
  store double %63, double* %10, align 8
  %64 = load double, double* %9, align 8
  %65 = load double, double* %10, align 8
  %66 = call i32 (i8*, ...) @printf(i8* getelementptr inbounds ([17 x i8], [17 x i8]* @.str.3, i64 0, i64 0), double %64, double %65)
  br label %87

67:                                               ; preds = %40
  %68 = load float, float* %5, align 4
  %69 = fneg float %68
  %70 = load float, float* %4, align 4
  %71 = fmul float 2.000000e+00, %70
  %72 = fdiv float %69, %71
  %73 = fpext float %72 to double
  store double %73, double* %11, align 8
  %74 = load double, double* %8, align 8
  %75 = fneg double %74
  %76 = call double @sqrt(double %75) #4
  %77 = load float, float* %4, align 4
  %78 = fmul float 2.000000e+00, %77
  %79 = fpext float %78 to double
  %80 = fdiv double %76, %79
  store double %80, double* %12, align 8
  %81 = load double, double* %11, align 8
  %82 = load double, double* %12, align 8
  %83 = call i32 (i8*, ...) @printf(i8* getelementptr inbounds ([15 x i8], [15 x i8]* @.str.4, i64 0, i64 0), double %81, double %82)
  %84 = load double, double* %11, align 8
  %85 = load double, double* %12, align 8
  %86 = call i32 (i8*, ...) @printf(i8* getelementptr inbounds ([15 x i8], [15 x i8]* @.str.5, i64 0, i64 0), double %84, double %85)
  br label %87

87:                                               ; preds = %67, %43
  br label %88

88:                                               ; preds = %87, %32
  br label %89

89:                                               ; preds = %88
  %90 = load i32, i32* %3, align 4
  %91 = add nsw i32 %90, 1
  store i32 %91, i32* %3, align 4
  br label %14

92:                                               ; preds = %14
  ret i32 0
}

declare dso_local i32 @__isoc99_scanf(i8*, ...) #1

; Function Attrs: nounwind readnone speculatable willreturn
declare double @llvm.fabs.f64(double) #2

declare dso_local i32 @printf(i8*, ...) #1

; Function Attrs: nounwind
declare dso_local double @sqrt(double) #3


!llvm.module.flags = !{!0}
!llvm.ident = !{!1}

!0 = !{i32 1, !"wchar_size", i32 4}
!1 = !{!"clang version 10.0.0-4ubuntu1 "}
